target datalayout = "e-m:e-p270:32:32-p271:32:32-p272:64:64-i64:64-i128:128-f80:128-n8:16:32:64-S128"
target triple = "x86_64-pc-linux-gnu"

; Function Attrs: nounwind uwtable
define internal void @Float32_To_Int24_Dither(ptr noundef %0, i32 noundef %1, ptr noundef %2, i32 noundef %3, i32 noundef %4, ptr noundef %5) #0 {
  %7 = alloca ptr, align 8
  %8 = alloca i32, align 4
  %9 = alloca ptr, align 8
  %10 = alloca i32, align 4
  %11 = alloca i32, align 4
  %12 = alloca ptr, align 8
  %13 = alloca ptr, align 8
  %14 = alloca ptr, align 8
  %15 = alloca i32, align 4
  %16 = alloca double, align 8
  %17 = alloca double, align 8
  store ptr %0, ptr %7, align 8, !tbaa !70
  store i32 %1, ptr %8, align 4, !tbaa !71
  store ptr %2, ptr %9, align 8, !tbaa !70
  store i32 %3, ptr %10, align 4, !tbaa !71
  store i32 %4, ptr %11, align 4, !tbaa !71
  store ptr %5, ptr %12, align 8, !tbaa !73
  call void @llvm.lifetime.start.p0(i64 8, ptr %13) #4
  %18 = load ptr, ptr %9, align 8, !tbaa !70
  store ptr %18, ptr %13, align 8, !tbaa !75
  call void @llvm.lifetime.start.p0(i64 8, ptr %14) #4
  %19 = load ptr, ptr %7, align 8, !tbaa !70
  store ptr %19, ptr %14, align 8, !tbaa !87
  call void @llvm.lifetime.start.p0(i64 4, ptr %15) #4
  br label %20

20:                                               ; preds = %24, %6
  %21 = load i32, ptr %11, align 4, !tbaa !71
  %22 = add i32 %21, -1
  store i32 %22, ptr %11, align 4, !tbaa !71
  %23 = icmp ne i32 %21, 0
  br i1 %23, label %24, label %59

24:                                               ; preds = %20
  call void @llvm.lifetime.start.p0(i64 8, ptr %16) #4
  %25 = load ptr, ptr %12, align 8, !tbaa !73
  %26 = call float @PaUtil_GenerateFloatTriangularDither(ptr noundef %25)
  %27 = fpext float %26 to double
  store double %27, ptr %16, align 8, !tbaa !81
  call void @llvm.lifetime.start.p0(i64 8, ptr %17) #4
  %28 = load ptr, ptr %13, align 8, !tbaa !75
  %29 = load float, ptr %28, align 4, !tbaa !79
  %30 = fpext float %29 to double
  %31 = load double, ptr %16, align 8, !tbaa !81
  %32 = call double @llvm.fmuladd.f64(double %30, double 0x41DFFFFFFF800000, double %31)
  store double %32, ptr %17, align 8, !tbaa !81
  %33 = load double, ptr %17, align 8, !tbaa !81
  %34 = fptosi double %33 to i32
  store i32 %34, ptr %15, align 4, !tbaa !71
  %35 = load i32, ptr %15, align 4, !tbaa !71
  %36 = ashr i32 %35, 8
  %37 = trunc i32 %36 to i8
  %38 = load ptr, ptr %14, align 8, !tbaa !87
  %39 = getelementptr inbounds i8, ptr %38, i64 0
  store i8 %37, ptr %39, align 1, !tbaa !89
  %40 = load i32, ptr %15, align 4, !tbaa !71
  %41 = ashr i32 %40, 16
  %42 = trunc i32 %41 to i8
  %43 = load ptr, ptr %14, align 8, !tbaa !87
  %44 = getelementptr inbounds i8, ptr %43, i64 1
  store i8 %42, ptr %44, align 1, !tbaa !89
  %45 = load i32, ptr %15, align 4, !tbaa !71
  %46 = ashr i32 %45, 24
  %47 = trunc i32 %46 to i8
  %48 = load ptr, ptr %14, align 8, !tbaa !87
  %49 = getelementptr inbounds i8, ptr %48, i64 2
  store i8 %47, ptr %49, align 1, !tbaa !89
  %50 = load i32, ptr %10, align 4, !tbaa !71
  %51 = load ptr, ptr %13, align 8, !tbaa !75
  %52 = sext i32 %50 to i64
  %53 = getelementptr inbounds float, ptr %51, i64 %52
  store ptr %53, ptr %13, align 8, !tbaa !75
  %54 = load i32, ptr %8, align 4, !tbaa !71
  %55 = mul nsw i32 %54, 3
  %56 = load ptr, ptr %14, align 8, !tbaa !87
  %57 = sext i32 %55 to i64
  %58 = getelementptr inbounds i8, ptr %56, i64 %57
  store ptr %58, ptr %14, align 8, !tbaa !87
  call void @llvm.lifetime.end.p0(i64 8, ptr %17) #4
  call void @llvm.lifetime.end.p0(i64 8, ptr %16) #4
  br label %20, !llvm.loop !91

59:                                               ; preds = %20
  call void @llvm.lifetime.end.p0(i64 4, ptr %15) #4
  call void @llvm.lifetime.end.p0(i64 8, ptr %14) #4
  call void @llvm.lifetime.end.p0(i64 8, ptr %13) #4
  ret void
}