; Function Attrs: nounwind uwtable
define internal void @Float32_To_Int24_Dither(ptr noundef writeonly captures(none) %0, i32 noundef %1, ptr noundef readonly captures(none) %2, i32 noundef %3, i32 noundef %4, ptr noundef %5) #3 {
  %.not18 = icmp eq i32 %4, 0
  br i1 %.not18, label %._crit_edge, label %.lr.ph

.lr.ph:                                           ; preds = %6
  %7 = sext i32 %3 to i64
  %8 = mul nsw i32 %1, 3
  %9 = sext i32 %8 to i64
  br label %10

10:                                               ; preds = %.lr.ph, %10
  %.021 = phi i32 [ %4, %.lr.ph ], [ %11, %10 ]
  %.01620 = phi ptr [ %2, %.lr.ph ], [ %26, %10 ]
  %.01719 = phi ptr [ %0, %.lr.ph ], [ %27, %10 ]
  %11 = add i32 %.021, -1
  %12 = tail call float @PaUtil_GenerateFloatTriangularDither(ptr noundef %5) #9
  %13 = fpext float %12 to double
  %14 = load float, ptr %.01620, align 4, !tbaa !68
  %15 = fpext float %14 to double
  %16 = tail call double @llvm.fmuladd.f64(double %15, double 0x41DFFFFFFF800000, double %13)
  %17 = fptosi double %16 to i32
  %18 = lshr i32 %17, 8
  %19 = trunc i32 %18 to i8
  store i8 %19, ptr %.01719, align 1, !tbaa !76
  %20 = lshr i32 %17, 16
  %21 = trunc i32 %20 to i8
  %22 = getelementptr inbounds nuw i8, ptr %.01719, i64 1
  store i8 %21, ptr %22, align 1, !tbaa !76
  %23 = lshr i32 %17, 24
  %24 = trunc nuw i32 %23 to i8
  %25 = getelementptr inbounds nuw i8, ptr %.01719, i64 2
  store i8 %24, ptr %25, align 1, !tbaa !76
  %26 = getelementptr inbounds float, ptr %.01620, i64 %7
  %27 = getelementptr inbounds i8, ptr %.01719, i64 %9
  %.not = icmp eq i32 %11, 0
  br i1 %.not, label %._crit_edge, label %10, !llvm.loop !78

._crit_edge:                                      ; preds = %10, %6
  ret void
}